target datalayout = "e-m:e-p270:32:32-p271:32:32-p272:64:64-i64:64-i128:128-f80:128-n8:16:32:64-S128"
target triple = "x86_64-pc-linux-gnu"

%struct.sched_param = type { i32 }

; Function Attrs: nounwind uwtable
define internal i32 @set_nice_for_calling_thread(i32 noundef %0) #0 {
  %2 = alloca i32, align 4
  %3 = alloca i32, align 4
  %4 = alloca i32, align 4
  %5 = alloca i32, align 4
  %6 = alloca i32, align 4
  %7 = alloca i32, align 4
  store i32 %0, ptr %3, align 4
  call void @llvm.lifetime.start.p0(i64 4, ptr %4) #11
  call void @llvm.lifetime.start.p0(i64 4, ptr %5) #11
  %8 = load i32, ptr %3, align 4
  %9 = icmp slt i32 %8, -2
  br i1 %9, label %13, label %10

10:                                               ; preds = %1
  %11 = load i32, ptr %3, align 4
  %12 = icmp sgt i32 %11, 2
  br i1 %12, label %13, label %14

13:                                               ; preds = %10, %1
  store i32 -22, ptr %2, align 4
  store i32 1, ptr %6, align 4
  br label %31

14:                                               ; preds = %10
  call void @llvm.lifetime.start.p0(i64 4, ptr %7) #11
  %15 = call i64 (i64, ...) @syscall(i64 noundef 186) #11
  %16 = trunc i64 %15 to i32
  store i32 %16, ptr %7, align 4
  %17 = load i32, ptr %3, align 4
  %18 = mul nsw i32 %17, 2
  %19 = sub nsw i32 0, %18
  store i32 %19, ptr %5, align 4
  %20 = load i32, ptr %7, align 4
  %21 = load i32, ptr %5, align 4
  %22 = call i32 @setpriority(i32 noundef 0, i32 noundef %20, i32 noundef %21) #11
  store i32 %22, ptr %4, align 4
  %23 = load i32, ptr %4, align 4
  %24 = icmp ne i32 %23, 0
  br i1 %24, label %25, label %29

25:                                               ; preds = %14
  %26 = call ptr @__errno_location() #12
  %27 = load i32, ptr %26, align 4
  %28 = sub nsw i32 0, %27
  store i32 %28, ptr %2, align 4
  store i32 1, ptr %6, align 4
  br label %30

29:                                               ; preds = %14
  store i32 0, ptr %2, align 4
  store i32 1, ptr %6, align 4
  br label %30

30:                                               ; preds = %29, %25
  call void @llvm.lifetime.end.p0(i64 4, ptr %7) #11
  br label %31

31:                                               ; preds = %30, %13
  call void @llvm.lifetime.end.p0(i64 4, ptr %5) #11
  call void @llvm.lifetime.end.p0(i64 4, ptr %4) #11
  %32 = load i32, ptr %2, align 4
  ret i32 %32
}

; Function Attrs: inlinehint nounwind willreturn memory(none) uwtable
define available_externally i32 @pthread_equal(i64 noundef %0, i64 noundef %1) #9 {
  %3 = alloca i64, align 8
  %4 = alloca i64, align 8
  store i64 %0, ptr %3, align 8
  store i64 %1, ptr %4, align 8
  %5 = load i64, ptr %3, align 8
  %6 = load i64, ptr %4, align 8
  %7 = icmp eq i64 %5, %6
  %8 = zext i1 %7 to i32
  ret i32 %8
}

; Function Attrs: nounwind uwtable
define dso_local i32 @uv_thread_setpriority(i64 noundef %0, i32 noundef %1) #0 {
  %3 = alloca i32, align 4
  %4 = alloca i64, align 8
  %5 = alloca i32, align 4
  %6 = alloca i32, align 4
  %7 = alloca i32, align 4
  %8 = alloca i32, align 4
  %9 = alloca i32, align 4
  %10 = alloca i32, align 4
  %11 = alloca i32, align 4
  %12 = alloca %struct.sched_param, align 4
  %13 = alloca i32, align 4
  store i64 %0, ptr %4, align 8
  store i32 %1, ptr %5, align 4
  call void @llvm.lifetime.start.p0(i64 4, ptr %6) #11
  call void @llvm.lifetime.start.p0(i64 4, ptr %7) #11
  call void @llvm.lifetime.start.p0(i64 4, ptr %8) #11
  call void @llvm.lifetime.start.p0(i64 4, ptr %9) #11
  call void @llvm.lifetime.start.p0(i64 4, ptr %10) #11
  call void @llvm.lifetime.start.p0(i64 4, ptr %11) #11
  call void @llvm.lifetime.start.p0(i64 4, ptr %12) #11
  %14 = load i32, ptr %5, align 4
  %15 = icmp slt i32 %14, -2
  br i1 %15, label %19, label %16

16:                                               ; preds = %2
  %17 = load i32, ptr %5, align 4
  %18 = icmp sgt i32 %17, 2
  br i1 %18, label %19, label %20

19:                                               ; preds = %16, %2
  store i32 -22, ptr %3, align 4
  store i32 1, ptr %13, align 4
  br label %99

20:                                               ; preds = %16
  %21 = load i64, ptr %4, align 8
  %22 = call i32 @pthread_getschedparam(i64 noundef %21, ptr noundef %11, ptr noundef %12) #11
  store i32 %22, ptr %6, align 4
  %23 = load i32, ptr %6, align 4
  %24 = icmp ne i32 %23, 0
  br i1 %24, label %25, label %29

25:                                               ; preds = %20
  %26 = call ptr @__errno_location() #12
  %27 = load i32, ptr %26, align 4
  %28 = sub nsw i32 0, %27
  store i32 %28, ptr %3, align 4
  store i32 1, ptr %13, align 4
  br label %99

29:                                               ; preds = %20
  %30 = load i32, ptr %11, align 4
  %31 = icmp eq i32 0, %30
  br i1 %31, label %32, label %40

32:                                               ; preds = %29
  %33 = load i64, ptr %4, align 8
  %34 = call i64 @pthread_self() #12
  %35 = call i32 @pthread_equal(i64 noundef %33, i64 noundef %34) #12
  %36 = icmp ne i32 %35, 0
  br i1 %36, label %37, label %40

37:                                               ; preds = %32
  %38 = load i32, ptr %5, align 4
  %39 = call i32 @set_nice_for_calling_thread(i32 noundef %38)
  store i32 %39, ptr %3, align 4
  store i32 1, ptr %13, align 4
  br label %99

40:                                               ; preds = %32, %29
  %41 = load i32, ptr %11, align 4
  %42 = call i32 @sched_get_priority_min(i32 noundef %41) #11
  store i32 %42, ptr %7, align 4
  %43 = load i32, ptr %11, align 4
  %44 = call i32 @sched_get_priority_max(i32 noundef %43) #11
  store i32 %44, ptr %8, align 4
  %45 = load i32, ptr %7, align 4
  %46 = icmp eq i32 %45, -1
  br i1 %46, label %50, label %47

47:                                               ; preds = %40
  %48 = load i32, ptr %8, align 4
  %49 = icmp eq i32 %48, -1
  br i1 %49, label %50, label %54

50:                                               ; preds = %47, %40
  %51 = call ptr @__errno_location() #12
  %52 = load i32, ptr %51, align 4
  %53 = sub nsw i32 0, %52
  store i32 %53, ptr %3, align 4
  store i32 1, ptr %13, align 4
  br label %99

54:                                               ; preds = %47
  %55 = load i32, ptr %8, align 4
  %56 = load i32, ptr %7, align 4
  %57 = sub nsw i32 %55, %56
  store i32 %57, ptr %9, align 4
  %58 = load i32, ptr %5, align 4
  switch i32 %58, label %79 [
    i32 2, label %59
    i32 1, label %61
    i32 0, label %67
    i32 -1, label %72
    i32 -2, label %77
  ]

59:                                               ; preds = %54
  %60 = load i32, ptr %8, align 4
  store i32 %60, ptr %10, align 4
  br label %80

61:                                               ; preds = %54
  %62 = load i32, ptr %7, align 4
  %63 = load i32, ptr %9, align 4
  %64 = mul nsw i32 %63, 3
  %65 = sdiv i32 %64, 4
  %66 = add nsw i32 %62, %65
  store i32 %66, ptr %10, align 4
  br label %80

67:                                               ; preds = %54
  %68 = load i32, ptr %7, align 4
  %69 = load i32, ptr %9, align 4
  %70 = sdiv i32 %69, 2
  %71 = add nsw i32 %68, %70
  store i32 %71, ptr %10, align 4
  br label %80

72:                                               ; preds = %54
  %73 = load i32, ptr %7, align 4
  %74 = load i32, ptr %9, align 4
  %75 = sdiv i32 %74, 4
  %76 = add nsw i32 %73, %75
  store i32 %76, ptr %10, align 4
  br label %80

77:                                               ; preds = %54
  %78 = load i32, ptr %7, align 4
  store i32 %78, ptr %10, align 4
  br label %80

79:                                               ; preds = %54
  store i32 0, ptr %3, align 4
  store i32 1, ptr %13, align 4
  br label %99

80:                                               ; preds = %77, %72, %67, %61, %59
  %81 = getelementptr inbounds nuw %struct.sched_param, ptr %12, i32 0, i32 0
  %82 = load i32, ptr %81, align 4
  %83 = load i32, ptr %10, align 4
  %84 = icmp ne i32 %82, %83
  br i1 %84, label %85, label %98

85:                                               ; preds = %80
  %86 = load i32, ptr %10, align 4
  %87 = getelementptr inbounds nuw %struct.sched_param, ptr %12, i32 0, i32 0
  store i32 %86, ptr %87, align 4
  %88 = load i64, ptr %4, align 8
  %89 = load i32, ptr %11, align 4
  %90 = call i32 @pthread_setschedparam(i64 noundef %88, i32 noundef %89, ptr noundef %12) #11
  store i32 %90, ptr %6, align 4
  %91 = load i32, ptr %6, align 4
  %92 = icmp ne i32 %91, 0
  br i1 %92, label %93, label %97

93:                                               ; preds = %85
  %94 = call ptr @__errno_location() #12
  %95 = load i32, ptr %94, align 4
  %96 = sub nsw i32 0, %95
  store i32 %96, ptr %3, align 4
  store i32 1, ptr %13, align 4
  br label %99

97:                                               ; preds = %85
  br label %98

98:                                               ; preds = %97, %80
  store i32 0, ptr %3, align 4
  store i32 1, ptr %13, align 4
  br label %99

99:                                               ; preds = %98, %93, %79, %50, %37, %25, %19
  call void @llvm.lifetime.end.p0(i64 4, ptr %12) #11
  call void @llvm.lifetime.end.p0(i64 4, ptr %11) #11
  call void @llvm.lifetime.end.p0(i64 4, ptr %10) #11
  call void @llvm.lifetime.end.p0(i64 4, ptr %9) #11
  call void @llvm.lifetime.end.p0(i64 4, ptr %8) #11
  call void @llvm.lifetime.end.p0(i64 4, ptr %7) #11
  call void @llvm.lifetime.end.p0(i64 4, ptr %6) #11
  %100 = load i32, ptr %3, align 4
  ret i32 %100
}