; Function Attrs: nounwind uwtable
define dso_local range(i32 -2147483647, -2147483648) i32 @uv_thread_setpriority(i64 noundef %0, i32 noundef %1) local_unnamed_addr #0 {
  %3 = alloca i32, align 4
  %4 = alloca %struct.sched_param, align 4
  call void @llvm.lifetime.start.p0(i64 4, ptr nonnull %3) #23
  call void @llvm.lifetime.start.p0(i64 4, ptr nonnull %4) #23
  %5 = add i32 %1, -3
  %or.cond = icmp ult i32 %5, -5
  br i1 %or.cond, label %set_nice_for_calling_thread.exit, label %6

6:                                                ; preds = %2
  %7 = call i32 @pthread_getschedparam(i64 noundef %0, ptr noundef nonnull %3, ptr noundef nonnull %4) #23
  %.not = icmp eq i32 %7, 0
  br i1 %.not, label %8, label %set_nice_for_calling_thread.exit.sink.split

8:                                                ; preds = %6
  %9 = load i32, ptr %3, align 4
  %10 = icmp eq i32 %9, 0
  br i1 %10, label %11, label %17

11:                                               ; preds = %8
  %12 = tail call i64 @pthread_self() #24
  %.not34 = icmp eq i64 %0, %12
  br i1 %.not34, label %13, label %17

13:                                               ; preds = %11
  %14 = call i64 (i64, ...) @syscall(i64 noundef 186) #23
  %15 = trunc i64 %14 to i32
  %.neg.i = mul nsw i32 %1, -2
  %16 = call i32 @setpriority(i32 noundef 0, i32 noundef %15, i32 noundef %.neg.i) #23
  %.not.i = icmp eq i32 %16, 0
  br i1 %.not.i, label %set_nice_for_calling_thread.exit, label %set_nice_for_calling_thread.exit.sink.split

17:                                               ; preds = %11, %8
  %18 = call i32 @sched_get_priority_min(i32 noundef %9) #23
  %19 = load i32, ptr %3, align 4
  %20 = call i32 @sched_get_priority_max(i32 noundef %19) #23
  %21 = icmp eq i32 %18, -1
  %22 = icmp eq i32 %20, -1
  %or.cond3 = select i1 %21, i1 true, i1 %22
  br i1 %or.cond3, label %set_nice_for_calling_thread.exit.sink.split, label %23

23:                                               ; preds = %17
  %24 = sub nsw i32 %20, %18
  switch i32 %1, label %default.unreachable [
    i32 2, label %36
    i32 1, label %25
    i32 0, label %29
    i32 -1, label %32
    i32 -2, label %35
  ]

25:                                               ; preds = %23
  %26 = mul nsw i32 %24, 3
  %27 = sdiv i32 %26, 4
  %28 = add nsw i32 %27, %18
  br label %36

29:                                               ; preds = %23
  %30 = sdiv i32 %24, 2
  %31 = add nsw i32 %30, %18
  br label %36

32:                                               ; preds = %23
  %33 = sdiv i32 %24, 4
  %34 = add nsw i32 %33, %18
  br label %36

35:                                               ; preds = %23
  br label %36

default.unreachable:                              ; preds = %23
  unreachable

36:                                               ; preds = %23, %35, %32, %29, %25
  %.0 = phi i32 [ %18, %35 ], [ %34, %32 ], [ %31, %29 ], [ %28, %25 ], [ %20, %23 ]
  %37 = load i32, ptr %4, align 4
  %.not32 = icmp eq i32 %37, %.0
  br i1 %.not32, label %set_nice_for_calling_thread.exit, label %38

38:                                               ; preds = %36
  store i32 %.0, ptr %4, align 4
  %39 = load i32, ptr %3, align 4
  %40 = call i32 @pthread_setschedparam(i64 noundef %0, i32 noundef %39, ptr noundef nonnull %4) #23
  %.not33 = icmp eq i32 %40, 0
  br i1 %.not33, label %set_nice_for_calling_thread.exit, label %set_nice_for_calling_thread.exit.sink.split

set_nice_for_calling_thread.exit.sink.split:      ; preds = %38, %17, %13, %6
  %41 = tail call ptr @__errno_location() #24
  %42 = load i32, ptr %41, align 4
  %43 = sub nsw i32 0, %42
  br label %set_nice_for_calling_thread.exit

set_nice_for_calling_thread.exit:                 ; preds = %set_nice_for_calling_thread.exit.sink.split, %13, %36, %38, %2
  %.027 = phi i32 [ -22, %2 ], [ 0, %38 ], [ 0, %36 ], [ 0, %13 ], [ %43, %set_nice_for_calling_thread.exit.sink.split ]
  call void @llvm.lifetime.end.p0(i64 4, ptr nonnull %4) #23
  call void @llvm.lifetime.end.p0(i64 4, ptr nonnull %3) #23
  ret i32 %.027
}